target datalayout = "e-m:e-p270:32:32-p271:32:32-p272:64:64-i64:64-i128:128-f80:128-n8:16:32:64-S128"
target triple = "x86_64-pc-linux-gnu"

%struct.expert_field = type { i32, i32 }

@.str.13 = private unnamed_addr constant [3 x i8] c"%s\00", align 1
@.str.77 = private unnamed_addr constant [1 x i8] zeroinitializer, align 1
@.str.238 = private unnamed_addr constant [20 x i8] c"an unsigned integer\00", align 1
@ei_type_length_mismatch_error = internal global %struct.expert_field zeroinitializer, align 4
@.str.254 = private unnamed_addr constant [34 x i8] c"Trying to fetch %s with length %d\00", align 1
@ei_type_length_mismatch_warn = internal global %struct.expert_field zeroinitializer, align 4

; Function Attrs: null_pointer_is_valid sspstrong uwtable
define internal void @report_type_length_mismatch(ptr noundef %0, ptr noundef %1, i32 noundef %2, i1 noundef zeroext %3) #0 {
  %5 = alloca ptr, align 8
  %6 = alloca ptr, align 8
  %7 = alloca i32, align 4
  %8 = alloca i8, align 1
  store ptr %0, ptr %5, align 8
  store ptr %1, ptr %6, align 8
  store i32 %2, ptr %7, align 4
  %9 = zext i1 %3 to i8
  store i8 %9, ptr %8, align 1
  %10 = load i8, ptr %8, align 1, !range !10, !noundef !11
  %11 = trunc i8 %10 to i1
  br i1 %11, label %12, label %17

12:                                               ; preds = %4
  %13 = load ptr, ptr %5, align 8
  %14 = load ptr, ptr %6, align 8
  %15 = load i32, ptr %7, align 4
  %16 = call ptr (ptr, ptr, ptr, ptr, ...) @expert_add_info_format(ptr noundef null, ptr noundef %13, ptr noundef @ei_type_length_mismatch_error, ptr noundef @.str.254, ptr noundef %14, i32 noundef %15)
  br label %22

17:                                               ; preds = %4
  %18 = load ptr, ptr %5, align 8
  %19 = load ptr, ptr %6, align 8
  %20 = load i32, ptr %7, align 4
  %21 = call ptr (ptr, ptr, ptr, ptr, ...) @expert_add_info_format(ptr noundef null, ptr noundef %18, ptr noundef @ei_type_length_mismatch_warn, ptr noundef @.str.254, ptr noundef %19, i32 noundef %20)
  br label %22

22:                                               ; preds = %17, %12
  %23 = load i8, ptr %8, align 1, !range !10, !noundef !11
  %24 = trunc i8 %23 to i1
  br i1 %24, label %25, label %26

25:                                               ; preds = %22
  call void @except_throw(i64 noundef 1, i64 noundef 3, ptr noundef null) #27
  unreachable

26:                                               ; preds = %22
  ret void
}

; Function Attrs: inlinehint null_pointer_is_valid sspstrong uwtable
define internal i64 @get_uint64_value(ptr noundef %0, ptr noundef %1, i32 noundef %2, i32 noundef %3, i32 noundef %4) #15 {
  %6 = alloca ptr, align 8
  %7 = alloca ptr, align 8
  %8 = alloca i32, align 4
  %9 = alloca i32, align 4
  %10 = alloca i32, align 4
  %11 = alloca i64, align 8
  store ptr %0, ptr %6, align 8
  store ptr %1, ptr %7, align 8
  store i32 %2, ptr %8, align 4
  store i32 %3, ptr %9, align 4
  store i32 %4, ptr %10, align 4
  call void @llvm.lifetime.start.p0(i64 8, ptr %11) #24
  %12 = load ptr, ptr %7, align 8
  %13 = load i32, ptr %8, align 4
  %14 = load i32, ptr %9, align 4
  %15 = load i32, ptr %10, align 4
  %16 = call i64 @tvb_get_uint64_with_length(ptr noundef %12, i32 noundef %13, i32 noundef %14, i32 noundef %15)
  store i64 %16, ptr %11, align 8
  %17 = load i32, ptr %9, align 4
  %18 = icmp ult i32 %17, 1
  br i1 %18, label %22, label %19

19:                                               ; preds = %5
  %20 = load i32, ptr %9, align 4
  %21 = icmp ugt i32 %20, 8
  br i1 %21, label %22, label %27

22:                                               ; preds = %19, %5
  %23 = load ptr, ptr %6, align 8
  %24 = load i32, ptr %9, align 4
  %25 = load i32, ptr %9, align 4
  %26 = icmp ult i32 %25, 1
  call void @report_type_length_mismatch(ptr noundef %23, ptr noundef @.str.238, i32 noundef %24, i1 noundef zeroext %26)
  br label %27

27:                                               ; preds = %22, %19
  %28 = load i64, ptr %11, align 8
  call void @llvm.lifetime.end.p0(i64 8, ptr %11) #24
  ret i64 %28
}

; Function Attrs: null_pointer_is_valid sspstrong uwtable
define ptr @proto_tree_add_bitmask_text(ptr noundef %0, ptr noundef %1, i32 noundef %2, i32 noundef %3, ptr noundef %4, ptr noundef %5, i32 noundef %6, ptr noundef %7, i32 noundef %8, i32 noundef %9) #0 {
  %11 = alloca ptr, align 8
  %12 = alloca ptr, align 8
  %13 = alloca i32, align 4
  %14 = alloca i32, align 4
  %15 = alloca ptr, align 8
  %16 = alloca ptr, align 8
  %17 = alloca i32, align 4
  %18 = alloca ptr, align 8
  %19 = alloca i32, align 4
  %20 = alloca i32, align 4
  %21 = alloca ptr, align 8
  %22 = alloca i64, align 8
  store ptr %0, ptr %11, align 8
  store ptr %1, ptr %12, align 8
  store i32 %2, ptr %13, align 4
  store i32 %3, ptr %14, align 4
  store ptr %4, ptr %15, align 8
  store ptr %5, ptr %16, align 8
  store i32 %6, ptr %17, align 4
  store ptr %7, ptr %18, align 8
  store i32 %8, ptr %19, align 4
  store i32 %9, ptr %20, align 4
  call void @llvm.lifetime.start.p0(i64 8, ptr %21) #24
  store ptr null, ptr %21, align 8
  call void @llvm.lifetime.start.p0(i64 8, ptr %22) #24
  %23 = load ptr, ptr %11, align 8
  %24 = icmp ne ptr %23, null
  br i1 %24, label %25, label %60

25:                                               ; preds = %10
  %26 = load ptr, ptr %11, align 8
  %27 = load ptr, ptr %12, align 8
  %28 = load i32, ptr %13, align 4
  %29 = load i32, ptr %14, align 4
  %30 = load ptr, ptr %15, align 8
  %31 = icmp ne ptr %30, null
  br i1 %31, label %32, label %34

32:                                               ; preds = %25
  %33 = load ptr, ptr %15, align 8
  br label %35

34:                                               ; preds = %25
  br label %35

35:                                               ; preds = %34, %32
  %36 = phi ptr [ %33, %32 ], [ @.str.77, %34 ]
  %37 = call ptr (ptr, ptr, i32, i32, ptr, ...) @proto_tree_add_text_internal(ptr noundef %26, ptr noundef %27, i32 noundef %28, i32 noundef %29, ptr noundef @.str.13, ptr noundef %36)
  store ptr %37, ptr %21, align 8
  %38 = load ptr, ptr %11, align 8
  %39 = load ptr, ptr %12, align 8
  %40 = load i32, ptr %13, align 4
  %41 = load i32, ptr %14, align 4
  %42 = load i32, ptr %19, align 4
  %43 = call i64 @get_uint64_value(ptr noundef %38, ptr noundef %39, i32 noundef %40, i32 noundef %41, i32 noundef %42)
  store i64 %43, ptr %22, align 8
  %44 = load ptr, ptr %21, align 8
  %45 = load ptr, ptr %12, align 8
  %46 = load i32, ptr %13, align 4
  %47 = load i32, ptr %14, align 4
  %48 = load i32, ptr %17, align 4
  %49 = load ptr, ptr %18, align 8
  %50 = load i32, ptr %20, align 4
  %51 = load i64, ptr %22, align 8
  %52 = call zeroext i1 @proto_item_add_bitmask_tree(ptr noundef %44, ptr noundef %45, i32 noundef %46, i32 noundef %47, i32 noundef %48, ptr noundef %49, i32 noundef %50, i1 noundef zeroext true, i1 noundef zeroext false, ptr noundef null, i64 noundef %51)
  br i1 %52, label %53, label %59

53:                                               ; preds = %35
  %54 = load ptr, ptr %16, align 8
  %55 = icmp ne ptr %54, null
  br i1 %55, label %56, label %59

56:                                               ; preds = %53
  %57 = load ptr, ptr %21, align 8
  %58 = load ptr, ptr %16, align 8
  call void (ptr, ptr, ...) @proto_item_append_text(ptr noundef %57, ptr noundef @.str.13, ptr noundef %58)
  br label %59

59:                                               ; preds = %56, %53, %35
  br label %60

60:                                               ; preds = %59, %10
  %61 = load ptr, ptr %21, align 8
  call void @llvm.lifetime.end.p0(i64 8, ptr %22) #24
  call void @llvm.lifetime.end.p0(i64 8, ptr %21) #24
  ret ptr %61
}