; Function Attrs: null_pointer_is_valid sspstrong uwtable
define noundef ptr @proto_tree_add_bitmask_text(ptr noundef %0, ptr noundef %1, i32 noundef %2, i32 noundef %3, ptr noundef %4, ptr noundef %5, i32 noundef %6, ptr noundef readonly captures(none) %7, i32 noundef %8, i32 noundef %9) local_unnamed_addr #0 {
  %.not = icmp eq ptr %0, null
  br i1 %.not, label %24, label %11

11:                                               ; preds = %10
  %.not26 = icmp eq ptr %4, null
  %12 = select i1 %.not26, ptr @.str.77, ptr %4
  %13 = tail call ptr (ptr, ptr, i32, i32, ptr, ...) @proto_tree_add_text_internal(ptr noundef nonnull %0, ptr noundef %1, i32 noundef %2, i32 noundef %3, ptr noundef nonnull @.str.13, ptr noundef nonnull %12)
  %14 = tail call i64 @tvb_get_uint64_with_length(ptr noundef %1, i32 noundef %2, i32 noundef %3, i32 noundef %8)
  %15 = add i32 %3, -9
  %or.cond.i = icmp ult i32 %15, -8
  br i1 %or.cond.i, label %16, label %get_uint64_value.exit

16:                                               ; preds = %11
  %17 = icmp eq i32 %3, 0
  br i1 %17, label %18, label %report_type_length_mismatch.exit.i

18:                                               ; preds = %16
  %19 = tail call ptr (ptr, ptr, ptr, ptr, ...) @expert_add_info_format(ptr noundef null, ptr noundef nonnull %0, ptr noundef nonnull @ei_type_length_mismatch_error, ptr noundef nonnull @.str.254, ptr noundef nonnull @.str.238, i32 noundef 0)
  tail call void @except_throw(i64 noundef 1, i64 noundef 3, ptr noundef null) #37
  unreachable

report_type_length_mismatch.exit.i:               ; preds = %16
  %20 = tail call ptr (ptr, ptr, ptr, ptr, ...) @expert_add_info_format(ptr noundef null, ptr noundef nonnull %0, ptr noundef nonnull @ei_type_length_mismatch_warn, ptr noundef nonnull @.str.254, ptr noundef nonnull @.str.238, i32 noundef %3)
  br label %get_uint64_value.exit

get_uint64_value.exit:                            ; preds = %11, %report_type_length_mismatch.exit.i
  %21 = tail call fastcc zeroext i1 @proto_item_add_bitmask_tree(ptr noundef %13, ptr noundef %1, i32 noundef %2, i32 noundef %3, i32 noundef %6, ptr noundef %7, i32 noundef %9, i1 noundef zeroext true, i1 noundef zeroext false, ptr noundef null, i64 noundef %14)
  %22 = icmp ne ptr %5, null
  %or.cond = and i1 %22, %21
  br i1 %or.cond, label %23, label %24

23:                                               ; preds = %get_uint64_value.exit
  tail call void (ptr, ptr, ...) @proto_item_append_text(ptr noundef %13, ptr noundef nonnull @.str.13, ptr noundef nonnull %5)
  br label %24

24:                                               ; preds = %get_uint64_value.exit, %23, %10
  %.0 = phi ptr [ %13, %23 ], [ %13, %get_uint64_value.exit ], [ null, %10 ]
  ret ptr %.0
}